target datalayout = "e-m:e-p270:32:32-p271:32:32-p272:64:64-i64:64-i128:128-f80:128-n8:16:32:64-S128"
target triple = "x86_64-unknown-linux-gnu"

%"class.std::__cxx11::basic_string" = type { %"struct.std::__cxx11::basic_string<char>::_Alloc_hider", i64, %union.anon }
%"struct.std::__cxx11::basic_string<char>::_Alloc_hider" = type { ptr }
%union.anon = type { i64, [8 x i8] }
%"class.std::__shared_count" = type { ptr }
%"struct.openvdb::v11_0::VersionId" = type { i32, i32 }
%"class.openvdb::v11_0::MetaMap" = type { ptr, %"class.std::map" }
%"class.std::map" = type { %"class.std::_Rb_tree" }
%"class.std::_Rb_tree" = type { %"struct.std::_Rb_tree<std::__cxx11::basic_string<char>, std::pair<const std::__cxx11::basic_string<char>, std::shared_ptr<openvdb::v11_0::Metadata>>, std::_Select1st<std::pair<const std::__cxx11::basic_string<char>, std::shared_ptr<openvdb::v11_0::Metadata>>>, std::less<std::__cxx11::basic_string<char>>>::_Rb_tree_impl" }
%"struct.std::_Rb_tree<std::__cxx11::basic_string<char>, std::pair<const std::__cxx11::basic_string<char>, std::shared_ptr<openvdb::v11_0::Metadata>>, std::_Select1st<std::pair<const std::__cxx11::basic_string<char>, std::shared_ptr<openvdb::v11_0::Metadata>>>, std::less<std::__cxx11::basic_string<char>>>::_Rb_tree_impl" = type { %"struct.std::_Rb_tree_key_compare", %"struct.std::_Rb_tree_header" }
%"struct.std::_Rb_tree_key_compare" = type { %"struct.std::less" }
%"struct.std::less" = type { i8 }
%"struct.std::_Rb_tree_header" = type { %"struct.std::_Rb_tree_node_base", i64 }
%"struct.std::_Rb_tree_node_base" = type { i32, ptr, ptr, ptr }
%"class.openvdb::v11_0::io::Archive" = type <{ ptr, i32, %"struct.openvdb::v11_0::VersionId", [4 x i8], %"class.std::__cxx11::basic_string", i8, i8, [2 x i8], i32, i8, [7 x i8] }>
%"class.openvdb::v11_0::io::GridDescriptor" = type { %"class.std::__cxx11::basic_string", %"class.std::__cxx11::basic_string", %"class.std::__cxx11::basic_string", %"class.std::__cxx11::basic_string", i8, i64, i64, i64 }
%"class.std::__shared_ptr.61" = type { ptr, %"class.std::__shared_count" }
%"class.std::fpos" = type { i64, %struct.__mbstate_t }
%struct.__mbstate_t = type { i32, %union.anon.89 }
%union.anon.89 = type { i32 }
%"class.openvdb::v11_0::GridBase" = type { %"class.openvdb::v11_0::MetaMap", %"class.std::shared_ptr.27" }
%"class.std::shared_ptr.27" = type { %"class.std::__shared_ptr.28" }
%"class.std::__shared_ptr.28" = type { ptr, %"class.std::__shared_count" }

; Function Attrs: mustprogress nounwind uwtable
define linkonce_odr noundef ptr @_ZNKSt12__shared_ptrIN7openvdb5v11_04math9TransformELN9__gnu_cxx12_Lock_policyE2EE3getEv(ptr noundef nonnull align 8 dereferenceable(16) %this) #5 comdat align 2 {
entry:
  %this.addr = alloca ptr, align 8
  store ptr %this, ptr %this.addr, align 8
  %this1 = load ptr, ptr %this.addr, align 8
  %_M_ptr = getelementptr inbounds %"class.std::__shared_ptr.28", ptr %this1, i32 0, i32 0
  %0 = load ptr, ptr %_M_ptr, align 8
  ret ptr %0
}

; Function Attrs: mustprogress nounwind uwtable
define linkonce_odr noundef ptr @_ZNKSt19__shared_ptr_accessIN7openvdb5v11_04math9TransformELN9__gnu_cxx12_Lock_policyE2ELb0ELb0EE6_M_getEv(ptr noundef nonnull align 1 dereferenceable(1) %this) #5 comdat align 2 {
entry:
  %this.addr = alloca ptr, align 8
  store ptr %this, ptr %this.addr, align 8
  %this1 = load ptr, ptr %this.addr, align 8
  %call = call noundef ptr @_ZNKSt12__shared_ptrIN7openvdb5v11_04math9TransformELN9__gnu_cxx12_Lock_policyE2EE3getEv(ptr noundef nonnull align 8 dereferenceable(16) %this1) #3
  ret ptr %call
}

; Function Attrs: mustprogress nounwind uwtable
define linkonce_odr noundef nonnull align 8 dereferenceable(16) ptr @_ZNKSt19__shared_ptr_accessIN7openvdb5v11_04math9TransformELN9__gnu_cxx12_Lock_policyE2ELb0ELb0EEdeEv(ptr noundef nonnull align 1 dereferenceable(1) %this) #5 comdat align 2 {
entry:
  %this.addr = alloca ptr, align 8
  store ptr %this, ptr %this.addr, align 8
  %this1 = load ptr, ptr %this.addr, align 8
  br label %do.body

do.body:                                          ; preds = %entry
  br label %do.cond

do.cond:                                          ; preds = %do.body
  br label %do.end

do.end:                                           ; preds = %do.cond
  %call = call noundef ptr @_ZNKSt19__shared_ptr_accessIN7openvdb5v11_04math9TransformELN9__gnu_cxx12_Lock_policyE2ELb0ELb0EE6_M_getEv(ptr noundef nonnull align 1 dereferenceable(1) %this1) #3
  ret ptr %call
}

; Function Attrs: mustprogress nounwind uwtable
define linkonce_odr noundef ptr @_ZNKSt12__shared_ptrIKN7openvdb5v11_08GridBaseELN9__gnu_cxx12_Lock_policyE2EE3getEv(ptr noundef nonnull align 8 dereferenceable(16) %this) #5 comdat align 2 {
entry:
  %this.addr = alloca ptr, align 8
  store ptr %this, ptr %this.addr, align 8
  %this1 = load ptr, ptr %this.addr, align 8
  %_M_ptr = getelementptr inbounds %"class.std::__shared_ptr.61", ptr %this1, i32 0, i32 0
  %0 = load ptr, ptr %_M_ptr, align 8
  ret ptr %0
}

; Function Attrs: mustprogress nounwind uwtable
define linkonce_odr noundef nonnull align 8 dereferenceable(16) ptr @_ZNK7openvdb5v11_08GridBase9transformEv(ptr noundef nonnull align 8 dereferenceable(72) %this) #5 comdat align 2 {
entry:
  %this.addr = alloca ptr, align 8
  store ptr %this, ptr %this.addr, align 8
  %this1 = load ptr, ptr %this.addr, align 8
  %mTransform = getelementptr inbounds %"class.openvdb::v11_0::GridBase", ptr %this1, i32 0, i32 1
  %call = call noundef nonnull align 8 dereferenceable(16) ptr @_ZNKSt19__shared_ptr_accessIN7openvdb5v11_04math9TransformELN9__gnu_cxx12_Lock_policyE2ELb0ELb0EEdeEv(ptr noundef nonnull align 1 dereferenceable(1) %mTransform) #3
  ret ptr %call
}

; Function Attrs: mustprogress nounwind uwtable
define linkonce_odr noundef i32 @_ZNK7openvdb5v11_02io7Archive11compressionEv(ptr noundef nonnull align 8 dereferenceable(65) %this) #5 comdat align 2 {
entry:
  %this.addr = alloca ptr, align 8
  store ptr %this, ptr %this.addr, align 8
  %this1 = load ptr, ptr %this.addr, align 8
  %mCompression = getelementptr inbounds %"class.openvdb::v11_0::io::Archive", ptr %this1, i32 0, i32 8
  %0 = load i32, ptr %mCompression, align 4
  ret i32 %0
}

; Function Attrs: mustprogress nounwind uwtable
define linkonce_odr noundef ptr @_ZNKSt19__shared_ptr_accessIKN7openvdb5v11_08GridBaseELN9__gnu_cxx12_Lock_policyE2ELb0ELb0EE6_M_getEv(ptr noundef nonnull align 1 dereferenceable(1) %this) #5 comdat align 2 {
entry:
  %this.addr = alloca ptr, align 8
  store ptr %this, ptr %this.addr, align 8
  %this1 = load ptr, ptr %this.addr, align 8
  %call = call noundef ptr @_ZNKSt12__shared_ptrIKN7openvdb5v11_08GridBaseELN9__gnu_cxx12_Lock_policyE2EE3getEv(ptr noundef nonnull align 8 dereferenceable(16) %this1) #3
  ret ptr %call
}

; Function Attrs: mustprogress nounwind uwtable
define linkonce_odr void @_ZN7openvdb5v11_02io14GridDescriptor9setEndPosEl(ptr noundef nonnull align 8 dereferenceable(160) %this, i64 noundef %pos) #5 comdat align 2 {
entry:
  %this.addr = alloca ptr, align 8
  %pos.addr = alloca i64, align 8
  store ptr %this, ptr %this.addr, align 8
  store i64 %pos, ptr %pos.addr, align 8
  %this1 = load ptr, ptr %this.addr, align 8
  %0 = load i64, ptr %pos.addr, align 8
  %mEndPos = getelementptr inbounds %"class.openvdb::v11_0::io::GridDescriptor", ptr %this1, i32 0, i32 7
  store i64 %0, ptr %mEndPos, align 8
  ret void
}

; Function Attrs: mustprogress uwtable
define linkonce_odr void @_ZNK7openvdb5v11_08GridBase14writeTransformERSo(ptr noundef nonnull align 8 dereferenceable(72) %this, ptr noundef nonnull align 8 dereferenceable(8) %os) #4 comdat align 2 {
entry:
  %this.addr = alloca ptr, align 8
  %os.addr = alloca ptr, align 8
  store ptr %this, ptr %this.addr, align 8
  store ptr %os, ptr %os.addr, align 8
  %this1 = load ptr, ptr %this.addr, align 8
  %call = call noundef nonnull align 8 dereferenceable(16) ptr @_ZNK7openvdb5v11_08GridBase9transformEv(ptr noundef nonnull align 8 dereferenceable(72) %this1)
  %0 = load ptr, ptr %os.addr, align 8
  call void @_ZNK7openvdb5v11_04math9Transform5writeERSo(ptr noundef nonnull align 8 dereferenceable(16) %call, ptr noundef nonnull align 8 dereferenceable(8) %0)
  ret void
}

; Function Attrs: mustprogress nounwind uwtable
define linkonce_odr noundef ptr @_ZNKSt19__shared_ptr_accessIKN7openvdb5v11_08GridBaseELN9__gnu_cxx12_Lock_policyE2ELb0ELb0EEptEv(ptr noundef nonnull align 1 dereferenceable(1) %this) #5 comdat align 2 {
entry:
  %this.addr = alloca ptr, align 8
  store ptr %this, ptr %this.addr, align 8
  %this1 = load ptr, ptr %this.addr, align 8
  %call = call noundef ptr @_ZNKSt19__shared_ptr_accessIKN7openvdb5v11_08GridBaseELN9__gnu_cxx12_Lock_policyE2ELb0ELb0EE6_M_getEv(ptr noundef nonnull align 1 dereferenceable(1) %this1) #3
  ret ptr %call
}

; Function Attrs: mustprogress uwtable
define void @_ZNK7openvdb5v11_02io7Archive18setGridCompressionERSoRKNS0_8GridBaseE(ptr noundef nonnull align 8 dereferenceable(65) %this, ptr noundef nonnull align 8 dereferenceable(8) %os, ptr noundef nonnull align 8 dereferenceable(72) %grid) #4 align 2 {
entry:
  %this.addr = alloca ptr, align 8
  %os.addr = alloca ptr, align 8
  %grid.addr = alloca ptr, align 8
  %c = alloca i32, align 4
  store ptr %this, ptr %this.addr, align 8
  store ptr %os, ptr %os.addr, align 8
  store ptr %grid, ptr %grid.addr, align 8
  %this1 = load ptr, ptr %this.addr, align 8
  %call = call noundef i32 @_ZNK7openvdb5v11_02io7Archive11compressionEv(ptr noundef nonnull align 8 dereferenceable(65) %this1)
  store i32 %call, ptr %c, align 4
  %0 = load ptr, ptr %grid.addr, align 8
  %call2 = call noundef i32 @_ZNK7openvdb5v11_08GridBase12getGridClassEv(ptr noundef nonnull align 8 dereferenceable(72) %0)
  switch i32 %call2, label %sw.epilog [
    i32 1, label %sw.bb
    i32 2, label %sw.bb
    i32 3, label %sw.bb3
    i32 0, label %sw.bb3
  ]

sw.bb:                                            ; preds = %entry, %entry
  %1 = load i32, ptr %c, align 4
  %and = and i32 %1, -2
  store i32 %and, ptr %c, align 4
  br label %sw.epilog

sw.bb3:                                           ; preds = %entry, %entry
  br label %sw.epilog

sw.epilog:                                        ; preds = %sw.bb3, %sw.bb, %entry
  %2 = load ptr, ptr %os.addr, align 8
  %vtable = load ptr, ptr %2, align 8
  %vbase.offset.ptr = getelementptr i8, ptr %vtable, i64 -24
  %vbase.offset = load i64, ptr %vbase.offset.ptr, align 8
  %add.ptr = getelementptr inbounds i8, ptr %2, i64 %vbase.offset
  %3 = load i32, ptr %c, align 4
  call void @_ZN7openvdb5v11_02io18setDataCompressionERSt8ios_basej(ptr noundef nonnull align 8 dereferenceable(216) %add.ptr, i32 noundef %3)
  %4 = load ptr, ptr %os.addr, align 8
  %call4 = call noundef nonnull align 8 dereferenceable(8) ptr @_ZNSo5writeEPKcl(ptr noundef nonnull align 8 dereferenceable(8) %4, ptr noundef %c, i64 noundef 4)
  ret void
}

; Function Attrs: mustprogress nounwind uwtable
define linkonce_odr noundef nonnull align 8 dereferenceable(72) ptr @_ZNKSt19__shared_ptr_accessIKN7openvdb5v11_08GridBaseELN9__gnu_cxx12_Lock_policyE2ELb0ELb0EEdeEv(ptr noundef nonnull align 1 dereferenceable(1) %this) #5 comdat align 2 {
entry:
  %this.addr = alloca ptr, align 8
  store ptr %this, ptr %this.addr, align 8
  %this1 = load ptr, ptr %this.addr, align 8
  br label %do.body

do.body:                                          ; preds = %entry
  br label %do.cond

do.cond:                                          ; preds = %do.body
  br label %do.end

do.end:                                           ; preds = %do.cond
  %call = call noundef ptr @_ZNKSt19__shared_ptr_accessIKN7openvdb5v11_08GridBaseELN9__gnu_cxx12_Lock_policyE2ELb0ELb0EE6_M_getEv(ptr noundef nonnull align 1 dereferenceable(1) %this1) #3
  ret ptr %call
}

; Function Attrs: mustprogress nounwind uwtable
define linkonce_odr void @_ZN7openvdb5v11_02io14GridDescriptor10setGridPosEl(ptr noundef nonnull align 8 dereferenceable(160) %this, i64 noundef %pos) #5 comdat align 2 {
entry:
  %this.addr = alloca ptr, align 8
  %pos.addr = alloca i64, align 8
  store ptr %this, ptr %this.addr, align 8
  store i64 %pos, ptr %pos.addr, align 8
  %this1 = load ptr, ptr %this.addr, align 8
  %0 = load i64, ptr %pos.addr, align 8
  %mGridPos = getelementptr inbounds %"class.openvdb::v11_0::io::GridDescriptor", ptr %this1, i32 0, i32 5
  store i64 %0, ptr %mGridPos, align 8
  ret void
}

; Function Attrs: mustprogress nounwind uwtable
define linkonce_odr noundef i64 @_ZNKSt4fposI11__mbstate_tEcvlEv(ptr noundef nonnull align 8 dereferenceable(16) %this) #5 comdat align 2 {
entry:
  %this.addr = alloca ptr, align 8
  store ptr %this, ptr %this.addr, align 8
  %this1 = load ptr, ptr %this.addr, align 8
  %_M_off = getelementptr inbounds %"class.std::fpos", ptr %this1, i32 0, i32 0
  %0 = load i64, ptr %_M_off, align 8
  ret i64 %0
}

; Function Attrs: mustprogress uwtable
define void @_ZNK7openvdb5v11_02io7Archive17writeGridInstanceERNS1_14GridDescriptorESt10shared_ptrIKNS0_8GridBaseEERSob(ptr noundef nonnull align 8 dereferenceable(65) %this, ptr noundef nonnull align 8 dereferenceable(160) %gd, ptr noundef %grid, ptr noundef nonnull align 8 dereferenceable(8) %os, i1 noundef zeroext %seekable) #4 align 2 {
entry:
  %this.addr = alloca ptr, align 8
  %gd.addr = alloca ptr, align 8
  %grid.indirect_addr = alloca ptr, align 8
  %os.addr = alloca ptr, align 8
  %seekable.addr = alloca i8, align 1
  %offsetPos = alloca i64, align 8
  %ref.tmp = alloca %"class.std::fpos", align 8
  %ref.tmp4 = alloca %"class.std::fpos", align 8
  %ref.tmp12 = alloca %"class.std::fpos", align 8
  store ptr %this, ptr %this.addr, align 8
  store ptr %gd, ptr %gd.addr, align 8
  store ptr %grid, ptr %grid.indirect_addr, align 8
  store ptr %os, ptr %os.addr, align 8
  %frombool = zext i1 %seekable to i8
  store i8 %frombool, ptr %seekable.addr, align 1
  %this1 = load ptr, ptr %this.addr, align 8
  %0 = load ptr, ptr %gd.addr, align 8
  %1 = load ptr, ptr %os.addr, align 8
  call void @_ZNK7openvdb5v11_02io14GridDescriptor11writeHeaderERSo(ptr noundef nonnull align 8 dereferenceable(160) %0, ptr noundef nonnull align 8 dereferenceable(8) %1)
  %2 = load i8, ptr %seekable.addr, align 1
  %tobool = trunc i8 %2 to i1
  br i1 %tobool, label %cond.true, label %cond.false

cond.true:                                        ; preds = %entry
  %3 = load ptr, ptr %os.addr, align 8
  %call = call { i64, i64 } @_ZNSo5tellpEv(ptr noundef nonnull align 8 dereferenceable(8) %3)
  %4 = getelementptr inbounds { i64, i64 }, ptr %ref.tmp, i32 0, i32 0
  %5 = extractvalue { i64, i64 } %call, 0
  store i64 %5, ptr %4, align 8
  %6 = getelementptr inbounds { i64, i64 }, ptr %ref.tmp, i32 0, i32 1
  %7 = extractvalue { i64, i64 } %call, 1
  store i64 %7, ptr %6, align 8
  %call2 = call noundef i64 @_ZNKSt4fposI11__mbstate_tEcvlEv(ptr noundef nonnull align 8 dereferenceable(16) %ref.tmp)
  br label %cond.end

cond.false:                                       ; preds = %entry
  br label %cond.end

cond.end:                                         ; preds = %cond.false, %cond.true
  %cond = phi i64 [ %call2, %cond.true ], [ 0, %cond.false ]
  store i64 %cond, ptr %offsetPos, align 8
  %8 = load ptr, ptr %gd.addr, align 8
  %9 = load ptr, ptr %os.addr, align 8
  call void @_ZNK7openvdb5v11_02io14GridDescriptor14writeStreamPosERSo(ptr noundef nonnull align 8 dereferenceable(160) %8, ptr noundef nonnull align 8 dereferenceable(8) %9)
  %10 = load i8, ptr %seekable.addr, align 1
  %tobool3 = trunc i8 %10 to i1
  br i1 %tobool3, label %if.then, label %if.end

if.then:                                          ; preds = %cond.end
  %11 = load ptr, ptr %gd.addr, align 8
  %12 = load ptr, ptr %os.addr, align 8
  %call5 = call { i64, i64 } @_ZNSo5tellpEv(ptr noundef nonnull align 8 dereferenceable(8) %12)
  %13 = getelementptr inbounds { i64, i64 }, ptr %ref.tmp4, i32 0, i32 0
  %14 = extractvalue { i64, i64 } %call5, 0
  store i64 %14, ptr %13, align 8
  %15 = getelementptr inbounds { i64, i64 }, ptr %ref.tmp4, i32 0, i32 1
  %16 = extractvalue { i64, i64 } %call5, 1
  store i64 %16, ptr %15, align 8
  %call6 = call noundef i64 @_ZNKSt4fposI11__mbstate_tEcvlEv(ptr noundef nonnull align 8 dereferenceable(16) %ref.tmp4)
  call void @_ZN7openvdb5v11_02io14GridDescriptor10setGridPosEl(ptr noundef nonnull align 8 dereferenceable(160) %11, i64 noundef %call6)
  br label %if.end

if.end:                                           ; preds = %if.then, %cond.end
  %17 = load ptr, ptr %os.addr, align 8
  %call7 = call noundef nonnull align 8 dereferenceable(72) ptr @_ZNKSt19__shared_ptr_accessIKN7openvdb5v11_08GridBaseELN9__gnu_cxx12_Lock_policyE2ELb0ELb0EEdeEv(ptr noundef nonnull align 1 dereferenceable(1) %grid) #3
  call void @_ZNK7openvdb5v11_02io7Archive18setGridCompressionERSoRKNS0_8GridBaseE(ptr noundef nonnull align 8 dereferenceable(65) %this1, ptr noundef nonnull align 8 dereferenceable(8) %17, ptr noundef nonnull align 8 dereferenceable(72) %call7)
  %call8 = call noundef ptr @_ZNKSt19__shared_ptr_accessIKN7openvdb5v11_08GridBaseELN9__gnu_cxx12_Lock_policyE2ELb0ELb0EEptEv(ptr noundef nonnull align 1 dereferenceable(1) %grid) #3
  %18 = load ptr, ptr %os.addr, align 8
  call void @_ZNK7openvdb5v11_07MetaMap9writeMetaERSo(ptr noundef nonnull align 8 dereferenceable(56) %call8, ptr noundef nonnull align 8 dereferenceable(8) %18)
  %call9 = call noundef ptr @_ZNKSt19__shared_ptr_accessIKN7openvdb5v11_08GridBaseELN9__gnu_cxx12_Lock_policyE2ELb0ELb0EEptEv(ptr noundef nonnull align 1 dereferenceable(1) %grid) #3
  %19 = load ptr, ptr %os.addr, align 8
  call void @_ZNK7openvdb5v11_08GridBase14writeTransformERSo(ptr noundef nonnull align 8 dereferenceable(72) %call9, ptr noundef nonnull align 8 dereferenceable(8) %19)
  %20 = load i8, ptr %seekable.addr, align 1
  %tobool10 = trunc i8 %20 to i1
  br i1 %tobool10, label %if.then11, label %if.end15

if.then11:                                        ; preds = %if.end
  %21 = load ptr, ptr %gd.addr, align 8
  %22 = load ptr, ptr %os.addr, align 8
  %call13 = call { i64, i64 } @_ZNSo5tellpEv(ptr noundef nonnull align 8 dereferenceable(8) %22)
  %23 = getelementptr inbounds { i64, i64 }, ptr %ref.tmp12, i32 0, i32 0
  %24 = extractvalue { i64, i64 } %call13, 0
  store i64 %24, ptr %23, align 8
  %25 = getelementptr inbounds { i64, i64 }, ptr %ref.tmp12, i32 0, i32 1
  %26 = extractvalue { i64, i64 } %call13, 1
  store i64 %26, ptr %25, align 8
  %call14 = call noundef i64 @_ZNKSt4fposI11__mbstate_tEcvlEv(ptr noundef nonnull align 8 dereferenceable(16) %ref.tmp12)
  call void @_ZN7openvdb5v11_02io14GridDescriptor9setEndPosEl(ptr noundef nonnull align 8 dereferenceable(160) %21, i64 noundef %call14)
  br label %if.end15

if.end15:                                         ; preds = %if.then11, %if.end
  %27 = load i8, ptr %seekable.addr, align 1
  %tobool16 = trunc i8 %27 to i1
  br i1 %tobool16, label %if.then17, label %if.end19

if.then17:                                        ; preds = %if.end15
  %28 = load ptr, ptr %os.addr, align 8
  %29 = load i64, ptr %offsetPos, align 8
  %call18 = call noundef nonnull align 8 dereferenceable(8) ptr @_ZNSo5seekpElSt12_Ios_Seekdir(ptr noundef nonnull align 8 dereferenceable(8) %28, i64 noundef %29, i32 noundef 0)
  %30 = load ptr, ptr %gd.addr, align 8
  %31 = load ptr, ptr %os.addr, align 8
  call void @_ZNK7openvdb5v11_02io14GridDescriptor14writeStreamPosERSo(ptr noundef nonnull align 8 dereferenceable(160) %30, ptr noundef nonnull align 8 dereferenceable(8) %31)
  %32 = load ptr, ptr %gd.addr, align 8
  %33 = load ptr, ptr %os.addr, align 8
  call void @_ZNK7openvdb5v11_02io14GridDescriptor9seekToEndERSo(ptr noundef nonnull align 8 dereferenceable(160) %32, ptr noundef nonnull align 8 dereferenceable(8) %33)
  br label %if.end19

if.end19:                                         ; preds = %if.then17, %if.end15
  ret void
}