; Function Attrs: mustprogress uwtable
define void @_ZNK7openvdb5v11_02io7Archive17writeGridInstanceERNS1_14GridDescriptorESt10shared_ptrIKNS0_8GridBaseEERSob(ptr nocapture noundef nonnull readonly align 8 dereferenceable(65) %this, ptr noundef nonnull align 8 dereferenceable(160) %gd, ptr nocapture noundef readonly %grid, ptr noundef nonnull align 8 dereferenceable(8) %os, i1 noundef zeroext %seekable) local_unnamed_addr #6 align 2 {
entry:
  %c.i20 = alloca i32, align 4
  %c.i = alloca i32, align 4
  tail call void @_ZNK7openvdb5v11_02io14GridDescriptor11writeHeaderERSo(ptr noundef nonnull align 8 dereferenceable(160) %gd, ptr noundef nonnull align 8 dereferenceable(8) %os)
  br i1 %seekable, label %if.then, label %if.end15.critedge

if.then:                                          ; preds = %entry
  %call = tail call { i64, i64 } @_ZNSo5tellpEv(ptr noundef nonnull align 8 dereferenceable(8) %os)
  %0 = extractvalue { i64, i64 } %call, 0
  tail call void @_ZNK7openvdb5v11_02io14GridDescriptor14writeStreamPosERSo(ptr noundef nonnull align 8 dereferenceable(160) %gd, ptr noundef nonnull align 8 dereferenceable(8) %os)
  %call5 = tail call { i64, i64 } @_ZNSo5tellpEv(ptr noundef nonnull align 8 dereferenceable(8) %os)
  %1 = extractvalue { i64, i64 } %call5, 0
  %mGridPos.i = getelementptr inbounds i8, ptr %gd, i64 136
  store i64 %1, ptr %mGridPos.i, align 8
  %2 = load ptr, ptr %grid, align 8
  call void @llvm.lifetime.start.p0(i64 4, ptr nonnull %c.i)
  %mCompression.i.i = getelementptr inbounds i8, ptr %this, i64 60
  %3 = load i32, ptr %mCompression.i.i, align 4
  store i32 %3, ptr %c.i, align 4
  %call2.i = tail call noundef i32 @_ZNK7openvdb5v11_08GridBase12getGridClassEv(ptr noundef nonnull align 8 dereferenceable(72) %2)
  %call2.off.i = add i32 %call2.i, -1
  %switch.i = icmp ult i32 %call2.off.i, 2
  br i1 %switch.i, label %sw.bb.i, label %if.then17

sw.bb.i:                                          ; preds = %if.then
  %and.i = and i32 %3, -2
  store i32 %and.i, ptr %c.i, align 4
  br label %if.then17

if.end15.critedge:                                ; preds = %entry
  tail call void @_ZNK7openvdb5v11_02io14GridDescriptor14writeStreamPosERSo(ptr noundef nonnull align 8 dereferenceable(160) %gd, ptr noundef nonnull align 8 dereferenceable(8) %os)
  %4 = load ptr, ptr %grid, align 8
  call void @llvm.lifetime.start.p0(i64 4, ptr nonnull %c.i20)
  %mCompression.i.i21 = getelementptr inbounds i8, ptr %this, i64 60
  %5 = load i32, ptr %mCompression.i.i21, align 4
  store i32 %5, ptr %c.i20, align 4
  %call2.i22 = tail call noundef i32 @_ZNK7openvdb5v11_08GridBase12getGridClassEv(ptr noundef nonnull align 8 dereferenceable(72) %4)
  %call2.off.i23 = add i32 %call2.i22, -1
  %switch.i24 = icmp ult i32 %call2.off.i23, 2
  br i1 %switch.i24, label %sw.bb.i30, label %if.end15

sw.bb.i30:                                        ; preds = %if.end15.critedge
  %and.i31 = and i32 %5, -2
  store i32 %and.i31, ptr %c.i20, align 4
  br label %if.end15

if.end15:                                         ; preds = %sw.bb.i30, %if.end15.critedge
  %6 = phi i32 [ %5, %if.end15.critedge ], [ %and.i31, %sw.bb.i30 ]
  %vtable.i25 = load ptr, ptr %os, align 8
  %vbase.offset.ptr.i26 = getelementptr i8, ptr %vtable.i25, i64 -24
  %vbase.offset.i27 = load i64, ptr %vbase.offset.ptr.i26, align 8
  %add.ptr.i28 = getelementptr inbounds i8, ptr %os, i64 %vbase.offset.i27
  tail call void @_ZN7openvdb5v11_02io18setDataCompressionERSt8ios_basej(ptr noundef nonnull align 8 dereferenceable(216) %add.ptr.i28, i32 noundef %6)
  %call4.i29 = call noundef nonnull align 8 dereferenceable(8) ptr @_ZNSo5writeEPKcl(ptr noundef nonnull align 8 dereferenceable(8) %os, ptr noundef nonnull %c.i20, i64 noundef 4)
  call void @llvm.lifetime.end.p0(i64 4, ptr nonnull %c.i20)
  %7 = load ptr, ptr %grid, align 8
  call void @_ZNK7openvdb5v11_07MetaMap9writeMetaERSo(ptr noundef nonnull align 8 dereferenceable(56) %7, ptr noundef nonnull align 8 dereferenceable(8) %os)
  %8 = load ptr, ptr %grid, align 8
  %mTransform.i.i33 = getelementptr inbounds i8, ptr %8, i64 56
  %9 = load ptr, ptr %mTransform.i.i33, align 8
  call void @_ZNK7openvdb5v11_04math9Transform5writeERSo(ptr noundef nonnull align 8 dereferenceable(16) %9, ptr noundef nonnull align 8 dereferenceable(8) %os)
  br label %if.end19

if.then17:                                        ; preds = %sw.bb.i, %if.then
  %10 = phi i32 [ %3, %if.then ], [ %and.i, %sw.bb.i ]
  %vtable.i = load ptr, ptr %os, align 8
  %vbase.offset.ptr.i = getelementptr i8, ptr %vtable.i, i64 -24
  %vbase.offset.i = load i64, ptr %vbase.offset.ptr.i, align 8
  %add.ptr.i = getelementptr inbounds i8, ptr %os, i64 %vbase.offset.i
  tail call void @_ZN7openvdb5v11_02io18setDataCompressionERSt8ios_basej(ptr noundef nonnull align 8 dereferenceable(216) %add.ptr.i, i32 noundef %10)
  %call4.i = call noundef nonnull align 8 dereferenceable(8) ptr @_ZNSo5writeEPKcl(ptr noundef nonnull align 8 dereferenceable(8) %os, ptr noundef nonnull %c.i, i64 noundef 4)
  call void @llvm.lifetime.end.p0(i64 4, ptr nonnull %c.i)
  %11 = load ptr, ptr %grid, align 8
  call void @_ZNK7openvdb5v11_07MetaMap9writeMetaERSo(ptr noundef nonnull align 8 dereferenceable(56) %11, ptr noundef nonnull align 8 dereferenceable(8) %os)
  %12 = load ptr, ptr %grid, align 8
  %mTransform.i.i = getelementptr inbounds i8, ptr %12, i64 56
  %13 = load ptr, ptr %mTransform.i.i, align 8
  call void @_ZNK7openvdb5v11_04math9Transform5writeERSo(ptr noundef nonnull align 8 dereferenceable(16) %13, ptr noundef nonnull align 8 dereferenceable(8) %os)
  %call13 = call { i64, i64 } @_ZNSo5tellpEv(ptr noundef nonnull align 8 dereferenceable(8) %os)
  %14 = extractvalue { i64, i64 } %call13, 0
  %mEndPos.i = getelementptr inbounds i8, ptr %gd, i64 152
  store i64 %14, ptr %mEndPos.i, align 8
  %call18 = call noundef nonnull align 8 dereferenceable(8) ptr @_ZNSo5seekpElSt12_Ios_Seekdir(ptr noundef nonnull align 8 dereferenceable(8) %os, i64 noundef %0, i32 noundef 0)
  call void @_ZNK7openvdb5v11_02io14GridDescriptor14writeStreamPosERSo(ptr noundef nonnull align 8 dereferenceable(160) %gd, ptr noundef nonnull align 8 dereferenceable(8) %os)
  call void @_ZNK7openvdb5v11_02io14GridDescriptor9seekToEndERSo(ptr noundef nonnull align 8 dereferenceable(160) %gd, ptr noundef nonnull align 8 dereferenceable(8) %os)
  br label %if.end19

if.end19:                                         ; preds = %if.end15, %if.then17
  ret void
}